target datalayout = "e-m:e-p270:32:32-p271:32:32-p272:64:64-i64:64-i128:128-f80:128-n8:16:32:64-S128"
target triple = "x86_64-pc-linux-gnu"

%struct.ZDICT_cover_params_t = type { i32, i32, i32, i32, double, i32, i32, %struct.ZDICT_params_t }
%struct.ZDICT_params_t = type { i32, i32, i32 }
%struct.COVER_best_s = type { %union.pthread_mutex_t, %union.pthread_cond_t, i64, ptr, i64, %struct.ZDICT_cover_params_t, i64 }
%union.pthread_mutex_t = type { %struct.__pthread_mutex_s }
%struct.__pthread_mutex_s = type { i32, i32, i32, i32, i32, i16, i16, %struct.__pthread_internal_list }
%struct.__pthread_internal_list = type { ptr, ptr }
%union.pthread_cond_t = type { %struct.__pthread_cond_s }
%struct.__pthread_cond_s = type { %union.__atomic_wide_counter, %union.__atomic_wide_counter, [2 x i32], [2 x i32], i32, i32, [2 x i32] }
%union.__atomic_wide_counter = type { i64 }

; Function Attrs: nounwind uwtable
define void @COVER_best_wait(ptr noundef %0) #0 {
  %2 = alloca ptr, align 8
  store ptr %0, ptr %2, align 8, !tbaa !65
  %3 = load ptr, ptr %2, align 8, !tbaa !65
  %4 = icmp ne ptr %3, null
  br i1 %4, label %6, label %5

5:                                                ; preds = %1
  br label %25

6:                                                ; preds = %1
  %7 = load ptr, ptr %2, align 8, !tbaa !65
  %8 = getelementptr inbounds nuw %struct.COVER_best_s, ptr %7, i32 0, i32 0
  %9 = call i32 @pthread_mutex_lock(ptr noundef %8) #10
  br label %10

10:                                               ; preds = %15, %6
  %11 = load ptr, ptr %2, align 8, !tbaa !65
  %12 = getelementptr inbounds nuw %struct.COVER_best_s, ptr %11, i32 0, i32 2
  %13 = load i64, ptr %12, align 8, !tbaa !67
  %14 = icmp ne i64 %13, 0
  br i1 %14, label %15, label %21

15:                                               ; preds = %10
  %16 = load ptr, ptr %2, align 8, !tbaa !65
  %17 = getelementptr inbounds nuw %struct.COVER_best_s, ptr %16, i32 0, i32 1
  %18 = load ptr, ptr %2, align 8, !tbaa !65
  %19 = getelementptr inbounds nuw %struct.COVER_best_s, ptr %18, i32 0, i32 0
  %20 = call i32 @pthread_cond_wait(ptr noundef %17, ptr noundef %19)
  br label %10, !llvm.loop !72

21:                                               ; preds = %10
  %22 = load ptr, ptr %2, align 8, !tbaa !65
  %23 = getelementptr inbounds nuw %struct.COVER_best_s, ptr %22, i32 0, i32 0
  %24 = call i32 @pthread_mutex_unlock(ptr noundef %23) #10
  br label %25

25:                                               ; preds = %21, %5
  ret void
}