; Function Attrs: nounwind uwtable
define void @COVER_best_wait(ptr noundef %0) local_unnamed_addr #5 {
  %.not = icmp eq ptr %0, null
  br i1 %.not, label %11, label %2

2:                                                ; preds = %1
  %3 = tail call i32 @pthread_mutex_lock(ptr noundef nonnull %0) #22
  %4 = getelementptr inbounds nuw i8, ptr %0, i64 88
  %5 = load i64, ptr %4, align 8, !tbaa !60
  %.not67 = icmp eq i64 %5, 0
  br i1 %.not67, label %._crit_edge, label %.lr.ph

.lr.ph:                                           ; preds = %2
  %6 = getelementptr inbounds nuw i8, ptr %0, i64 40
  br label %7

7:                                                ; preds = %.lr.ph, %7
  %8 = tail call i32 @pthread_cond_wait(ptr noundef nonnull %6, ptr noundef nonnull %0) #22
  %9 = load i64, ptr %4, align 8, !tbaa !60
  %.not6 = icmp eq i64 %9, 0
  br i1 %.not6, label %._crit_edge, label %7, !llvm.loop !61

._crit_edge:                                      ; preds = %7, %2
  %10 = tail call i32 @pthread_mutex_unlock(ptr noundef nonnull %0) #22
  br label %11

11:                                               ; preds = %1, %._crit_edge
  ret void
}